; Function Attrs: inlinehint mustprogress nounwind uwtable
define internal fastcc void @_ZN12_GLOBAL__N_117ExclusiveDatabaseD2Ev(ptr noundef nonnull readonly align 8 captures(none) dereferenceable(72) %0) unnamed_addr #4 align 2 personality ptr @__gxx_personality_v0 {
  %2 = getelementptr inbounds nuw i8, ptr %0, i64 16
  %3 = getelementptr inbounds nuw i8, ptr %0, i64 40
  %4 = load ptr, ptr %3, align 8, !tbaa !73
  %5 = getelementptr inbounds nuw i8, ptr %0, i64 48
  %6 = load ptr, ptr %5, align 8, !tbaa !74
  invoke void @_ZNSt12_Destroy_auxILb0EE9__destroyIPN5Yosys7hashlib4dictINS2_5RTLIL6SigBitESt4pairINS5_7SigSpecESt6vectorINS5_5ConstESaISA_EEENS3_8hash_opsIS6_EEE7entry_tEEEvT_SJ_(ptr noundef %4, ptr noundef %6)
          to label %_ZSt8_DestroyIPN5Yosys7hashlib4dictINS0_5RTLIL6SigBitESt4pairINS3_7SigSpecESt6vectorINS3_5ConstESaIS8_EEENS1_8hash_opsIS4_EEE7entry_tESF_EvT_SH_RSaIT0_E.exit.i.i unwind label %14

_ZSt8_DestroyIPN5Yosys7hashlib4dictINS0_5RTLIL6SigBitESt4pairINS3_7SigSpecESt6vectorINS3_5ConstESaIS8_EEENS1_8hash_opsIS4_EEE7entry_tESF_EvT_SH_RSaIT0_E.exit.i.i: ; preds = %1
  %7 = load ptr, ptr %3, align 8, !tbaa !73
  %.not.i.i.i.i = icmp eq ptr %7, null
  br i1 %.not.i.i.i.i, label %_ZNSt6vectorIN5Yosys7hashlib4dictINS0_5RTLIL6SigBitESt4pairINS3_7SigSpecES_INS3_5ConstESaIS7_EEENS1_8hash_opsIS4_EEE7entry_tESaISE_EED2Ev.exit.i, label %8

8:                                                ; preds = %_ZSt8_DestroyIPN5Yosys7hashlib4dictINS0_5RTLIL6SigBitESt4pairINS3_7SigSpecESt6vectorINS3_5ConstESaIS8_EEENS1_8hash_opsIS4_EEE7entry_tESF_EvT_SH_RSaIT0_E.exit.i.i
  %9 = getelementptr inbounds nuw i8, ptr %0, i64 56
  %10 = load ptr, ptr %9, align 8, !tbaa !75
  %11 = ptrtoint ptr %10 to i64
  %12 = ptrtoint ptr %7 to i64
  %13 = sub i64 %11, %12
  tail call void @_ZdlPvm(ptr noundef nonnull %7, i64 noundef %13) #24
  br label %_ZNSt6vectorIN5Yosys7hashlib4dictINS0_5RTLIL6SigBitESt4pairINS3_7SigSpecES_INS3_5ConstESaIS7_EEENS1_8hash_opsIS4_EEE7entry_tESaISE_EED2Ev.exit.i

14:                                               ; preds = %1
  %15 = landingpad { ptr, i32 }
          catch ptr null
  %16 = extractvalue { ptr, i32 } %15, 0
  tail call void @__clang_call_terminate(ptr %16) #27
  unreachable

_ZNSt6vectorIN5Yosys7hashlib4dictINS0_5RTLIL6SigBitESt4pairINS3_7SigSpecES_INS3_5ConstESaIS7_EEENS1_8hash_opsIS4_EEE7entry_tESaISE_EED2Ev.exit.i: ; preds = %8, %_ZSt8_DestroyIPN5Yosys7hashlib4dictINS0_5RTLIL6SigBitESt4pairINS3_7SigSpecESt6vectorINS3_5ConstESaIS8_EEENS1_8hash_opsIS4_EEE7entry_tESF_EvT_SH_RSaIT0_E.exit.i.i
  %17 = load ptr, ptr %2, align 8, !tbaa !76
  %.not.i.i.i1.i = icmp eq ptr %17, null
  br i1 %.not.i.i.i1.i, label %_ZN5Yosys7hashlib4dictINS_5RTLIL6SigBitESt4pairINS2_7SigSpecESt6vectorINS2_5ConstESaIS7_EEENS0_8hash_opsIS3_EEED2Ev.exit, label %18

18:                                               ; preds = %_ZNSt6vectorIN5Yosys7hashlib4dictINS0_5RTLIL6SigBitESt4pairINS3_7SigSpecES_INS3_5ConstESaIS7_EEENS1_8hash_opsIS4_EEE7entry_tESaISE_EED2Ev.exit.i
  %19 = getelementptr inbounds nuw i8, ptr %0, i64 32
  %20 = load ptr, ptr %19, align 8, !tbaa !77
  %21 = ptrtoint ptr %20 to i64
  %22 = ptrtoint ptr %17 to i64
  %23 = sub i64 %21, %22
  tail call void @_ZdlPvm(ptr noundef nonnull %17, i64 noundef %23) #24
  br label %_ZN5Yosys7hashlib4dictINS_5RTLIL6SigBitESt4pairINS2_7SigSpecESt6vectorINS2_5ConstESaIS7_EEENS0_8hash_opsIS3_EEED2Ev.exit

_ZN5Yosys7hashlib4dictINS_5RTLIL6SigBitESt4pairINS2_7SigSpecESt6vectorINS2_5ConstESaIS7_EEENS0_8hash_opsIS3_EEED2Ev.exit: ; preds = %_ZNSt6vectorIN5Yosys7hashlib4dictINS0_5RTLIL6SigBitESt4pairINS3_7SigSpecES_INS3_5ConstESaIS7_EEENS1_8hash_opsIS4_EEE7entry_tESaISE_EED2Ev.exit.i, %18
  ret void
}